target datalayout = "e-m:e-p270:32:32-p271:32:32-p272:64:64-i64:64-i128:128-f80:128-n8:16:32:64-S128"
target triple = "x86_64-pc-linux-gnu"

%struct.Node = type { i32 }
%struct.Var = type { %struct.Expr, i32, i16, i32, i32, i32, ptr, i32, i32, i32, i16, i32 }
%struct.Expr = type { i32 }
%struct.PlaceHolderVar = type { %struct.Expr, ptr, ptr, ptr, i32, i32 }

; Function Attrs: nounwind uwtable
define internal zeroext i1 @contain_var_clause_walker(ptr noundef %0, ptr noundef %1) #0 {
  %3 = alloca i1, align 1
  %4 = alloca ptr, align 8
  %5 = alloca ptr, align 8
  store ptr %0, ptr %4, align 8
  store ptr %1, ptr %5, align 8
  %6 = load ptr, ptr %4, align 8
  %7 = icmp eq ptr %6, null
  br i1 %7, label %8, label %9

8:                                                ; preds = %2
  store i1 false, ptr %3, align 1
  br label %43

9:                                                ; preds = %2
  %10 = load ptr, ptr %4, align 8
  %11 = getelementptr inbounds nuw %struct.Node, ptr %10, i32 0, i32 0
  %12 = load i32, ptr %11, align 4
  %13 = icmp eq i32 %12, 6
  br i1 %13, label %14, label %21

14:                                               ; preds = %9
  %15 = load ptr, ptr %4, align 8
  %16 = getelementptr inbounds nuw %struct.Var, ptr %15, i32 0, i32 7
  %17 = load i32, ptr %16, align 8
  %18 = icmp eq i32 %17, 0
  br i1 %18, label %19, label %20

19:                                               ; preds = %14
  store i1 true, ptr %3, align 1
  br label %43

20:                                               ; preds = %14
  store i1 false, ptr %3, align 1
  br label %43

21:                                               ; preds = %9
  %22 = load ptr, ptr %4, align 8
  %23 = getelementptr inbounds nuw %struct.Node, ptr %22, i32 0, i32 0
  %24 = load i32, ptr %23, align 4
  %25 = icmp eq i32 %24, 58
  br i1 %25, label %26, label %27

26:                                               ; preds = %21
  store i1 true, ptr %3, align 1
  br label %43

27:                                               ; preds = %21
  %28 = load ptr, ptr %4, align 8
  %29 = getelementptr inbounds nuw %struct.Node, ptr %28, i32 0, i32 0
  %30 = load i32, ptr %29, align 4
  %31 = icmp eq i32 %30, 318
  br i1 %31, label %32, label %39

32:                                               ; preds = %27
  %33 = load ptr, ptr %4, align 8
  %34 = getelementptr inbounds nuw %struct.PlaceHolderVar, ptr %33, i32 0, i32 5
  %35 = load i32, ptr %34, align 4
  %36 = icmp eq i32 %35, 0
  br i1 %36, label %37, label %38

37:                                               ; preds = %32
  store i1 true, ptr %3, align 1
  br label %43

38:                                               ; preds = %32
  br label %39

39:                                               ; preds = %38, %27
  %40 = load ptr, ptr %4, align 8
  %41 = load ptr, ptr %5, align 8
  %42 = call zeroext i1 @expression_tree_walker_impl(ptr noundef %40, ptr noundef @contain_var_clause_walker, ptr noundef %41)
  store i1 %42, ptr %3, align 1
  br label %43

43:                                               ; preds = %39, %37, %26, %20, %19, %8
  %44 = load i1, ptr %3, align 1
  ret i1 %44
}