; Function Attrs: nounwind uwtable
define internal zeroext i1 @contain_var_clause_walker(ptr noundef %0, ptr noundef %1) #0 {
  %3 = icmp eq ptr %0, null
  br i1 %3, label %16, label %4

4:                                                ; preds = %2
  %5 = load i32, ptr %0, align 4
  switch i32 %5, label %14 [
    i32 6, label %6
    i32 58, label %16
    i32 318, label %10
  ]

6:                                                ; preds = %4
  %7 = getelementptr inbounds nuw i8, ptr %0, i64 32
  %8 = load i32, ptr %7, align 8
  %9 = icmp eq i32 %8, 0
  br label %16

10:                                               ; preds = %4
  %11 = getelementptr inbounds nuw i8, ptr %0, i64 36
  %12 = load i32, ptr %11, align 4
  %13 = icmp eq i32 %12, 0
  br i1 %13, label %16, label %14

14:                                               ; preds = %4, %10
  %15 = tail call zeroext i1 @expression_tree_walker_impl(ptr noundef nonnull %0, ptr noundef nonnull @contain_var_clause_walker, ptr noundef %1) #6
  br label %16

16:                                               ; preds = %10, %4, %6, %2, %14
  %.0 = phi i1 [ %15, %14 ], [ false, %2 ], [ %9, %6 ], [ true, %4 ], [ true, %10 ]
  ret i1 %.0
}